target datalayout = "e-m:e-p270:32:32-p271:32:32-p272:64:64-i64:64-i128:128-f80:128-n8:16:32:64-S128"
target triple = "x86_64-pc-linux-gnu"

%struct.bufc_pool = type { ptr, i64, i64, i64 }
%struct.buf_chunk = type { ptr, i64, i64, i64, %union.anon }
%union.anon = type { ptr }
%struct.bufq = type { ptr, ptr, ptr, ptr, i64, i64, i64, i32 }

@Curl_cfree = external global ptr, align 8

; Function Attrs: nounwind uwtable
define internal void @chunk_reset(ptr noundef %0) #0 {
  %2 = alloca ptr, align 8
  store ptr %0, ptr %2, align 8
  %3 = load ptr, ptr %2, align 8
  %4 = getelementptr inbounds %struct.buf_chunk, ptr %3, i32 0, i32 0
  store ptr null, ptr %4, align 8
  %5 = load ptr, ptr %2, align 8
  %6 = getelementptr inbounds %struct.buf_chunk, ptr %5, i32 0, i32 3
  store i64 0, ptr %6, align 8
  %7 = load ptr, ptr %2, align 8
  %8 = getelementptr inbounds %struct.buf_chunk, ptr %7, i32 0, i32 2
  store i64 0, ptr %8, align 8
  ret void
}

; Function Attrs: nounwind uwtable
define internal void @bufcp_put(ptr noundef %0, ptr noundef %1) #0 {
  %3 = alloca ptr, align 8
  %4 = alloca ptr, align 8
  store ptr %0, ptr %3, align 8
  store ptr %1, ptr %4, align 8
  %5 = load ptr, ptr %3, align 8
  %6 = getelementptr inbounds %struct.bufc_pool, ptr %5, i32 0, i32 2
  %7 = load i64, ptr %6, align 8
  %8 = load ptr, ptr %3, align 8
  %9 = getelementptr inbounds %struct.bufc_pool, ptr %8, i32 0, i32 3
  %10 = load i64, ptr %9, align 8
  %11 = icmp uge i64 %7, %10
  br i1 %11, label %12, label %15

12:                                               ; preds = %2
  %13 = load ptr, ptr @Curl_cfree, align 8
  %14 = load ptr, ptr %4, align 8
  call void %13(ptr noundef %14)
  br label %29

15:                                               ; preds = %2
  %16 = load ptr, ptr %4, align 8
  call void @chunk_reset(ptr noundef %16)
  %17 = load ptr, ptr %3, align 8
  %18 = getelementptr inbounds %struct.bufc_pool, ptr %17, i32 0, i32 0
  %19 = load ptr, ptr %18, align 8
  %20 = load ptr, ptr %4, align 8
  %21 = getelementptr inbounds %struct.buf_chunk, ptr %20, i32 0, i32 0
  store ptr %19, ptr %21, align 8
  %22 = load ptr, ptr %4, align 8
  %23 = load ptr, ptr %3, align 8
  %24 = getelementptr inbounds %struct.bufc_pool, ptr %23, i32 0, i32 0
  store ptr %22, ptr %24, align 8
  %25 = load ptr, ptr %3, align 8
  %26 = getelementptr inbounds %struct.bufc_pool, ptr %25, i32 0, i32 2
  %27 = load i64, ptr %26, align 8
  %28 = add i64 %27, 1
  store i64 %28, ptr %26, align 8
  br label %29

29:                                               ; preds = %15, %12
  ret void
}

; Function Attrs: nounwind uwtable
define internal zeroext i1 @chunk_is_empty(ptr noundef %0) #0 {
  %2 = alloca ptr, align 8
  store ptr %0, ptr %2, align 8
  %3 = load ptr, ptr %2, align 8
  %4 = getelementptr inbounds %struct.buf_chunk, ptr %3, i32 0, i32 2
  %5 = load i64, ptr %4, align 8
  %6 = load ptr, ptr %2, align 8
  %7 = getelementptr inbounds %struct.buf_chunk, ptr %6, i32 0, i32 3
  %8 = load i64, ptr %7, align 8
  %9 = icmp uge i64 %5, %8
  ret i1 %9
}

; Function Attrs: nounwind uwtable
define internal void @prune_head(ptr noundef %0) #0 {
  %2 = alloca ptr, align 8
  %3 = alloca ptr, align 8
  store ptr %0, ptr %2, align 8
  br label %4

4:                                                ; preds = %81, %1
  %5 = load ptr, ptr %2, align 8
  %6 = getelementptr inbounds %struct.bufq, ptr %5, i32 0, i32 0
  %7 = load ptr, ptr %6, align 8
  %8 = icmp ne ptr %7, null
  br i1 %8, label %9, label %14

9:                                                ; preds = %4
  %10 = load ptr, ptr %2, align 8
  %11 = getelementptr inbounds %struct.bufq, ptr %10, i32 0, i32 0
  %12 = load ptr, ptr %11, align 8
  %13 = call zeroext i1 @chunk_is_empty(ptr noundef %12)
  br label %14

14:                                               ; preds = %9, %4
  %15 = phi i1 [ false, %4 ], [ %13, %9 ]
  br i1 %15, label %16, label %82

16:                                               ; preds = %14
  %17 = load ptr, ptr %2, align 8
  %18 = getelementptr inbounds %struct.bufq, ptr %17, i32 0, i32 0
  %19 = load ptr, ptr %18, align 8
  store ptr %19, ptr %3, align 8
  %20 = load ptr, ptr %3, align 8
  %21 = getelementptr inbounds %struct.buf_chunk, ptr %20, i32 0, i32 0
  %22 = load ptr, ptr %21, align 8
  %23 = load ptr, ptr %2, align 8
  %24 = getelementptr inbounds %struct.bufq, ptr %23, i32 0, i32 0
  store ptr %22, ptr %24, align 8
  %25 = load ptr, ptr %2, align 8
  %26 = getelementptr inbounds %struct.bufq, ptr %25, i32 0, i32 1
  %27 = load ptr, ptr %26, align 8
  %28 = load ptr, ptr %3, align 8
  %29 = icmp eq ptr %27, %28
  br i1 %29, label %30, label %36

30:                                               ; preds = %16
  %31 = load ptr, ptr %2, align 8
  %32 = getelementptr inbounds %struct.bufq, ptr %31, i32 0, i32 0
  %33 = load ptr, ptr %32, align 8
  %34 = load ptr, ptr %2, align 8
  %35 = getelementptr inbounds %struct.bufq, ptr %34, i32 0, i32 1
  store ptr %33, ptr %35, align 8
  br label %36

36:                                               ; preds = %30, %16
  %37 = load ptr, ptr %2, align 8
  %38 = getelementptr inbounds %struct.bufq, ptr %37, i32 0, i32 3
  %39 = load ptr, ptr %38, align 8
  %40 = icmp ne ptr %39, null
  br i1 %40, label %41, label %50

41:                                               ; preds = %36
  %42 = load ptr, ptr %2, align 8
  %43 = getelementptr inbounds %struct.bufq, ptr %42, i32 0, i32 3
  %44 = load ptr, ptr %43, align 8
  %45 = load ptr, ptr %3, align 8
  call void @bufcp_put(ptr noundef %44, ptr noundef %45)
  %46 = load ptr, ptr %2, align 8
  %47 = getelementptr inbounds %struct.bufq, ptr %46, i32 0, i32 4
  %48 = load i64, ptr %47, align 8
  %49 = add i64 %48, -1
  store i64 %49, ptr %47, align 8
  br label %81

50:                                               ; preds = %36
  %51 = load ptr, ptr %2, align 8
  %52 = getelementptr inbounds %struct.bufq, ptr %51, i32 0, i32 4
  %53 = load i64, ptr %52, align 8
  %54 = load ptr, ptr %2, align 8
  %55 = getelementptr inbounds %struct.bufq, ptr %54, i32 0, i32 5
  %56 = load i64, ptr %55, align 8
  %57 = icmp ugt i64 %53, %56
  br i1 %57, label %64, label %58

58:                                               ; preds = %50
  %59 = load ptr, ptr %2, align 8
  %60 = getelementptr inbounds %struct.bufq, ptr %59, i32 0, i32 7
  %61 = load i32, ptr %60, align 8
  %62 = and i32 %61, 2
  %63 = icmp ne i32 %62, 0
  br i1 %63, label %64, label %71

64:                                               ; preds = %58, %50
  %65 = load ptr, ptr @Curl_cfree, align 8
  %66 = load ptr, ptr %3, align 8
  call void %65(ptr noundef %66)
  %67 = load ptr, ptr %2, align 8
  %68 = getelementptr inbounds %struct.bufq, ptr %67, i32 0, i32 4
  %69 = load i64, ptr %68, align 8
  %70 = add i64 %69, -1
  store i64 %70, ptr %68, align 8
  br label %80

71:                                               ; preds = %58
  %72 = load ptr, ptr %2, align 8
  %73 = getelementptr inbounds %struct.bufq, ptr %72, i32 0, i32 2
  %74 = load ptr, ptr %73, align 8
  %75 = load ptr, ptr %3, align 8
  %76 = getelementptr inbounds %struct.buf_chunk, ptr %75, i32 0, i32 0
  store ptr %74, ptr %76, align 8
  %77 = load ptr, ptr %3, align 8
  %78 = load ptr, ptr %2, align 8
  %79 = getelementptr inbounds %struct.bufq, ptr %78, i32 0, i32 2
  store ptr %77, ptr %79, align 8
  br label %80

80:                                               ; preds = %71, %64
  br label %81

81:                                               ; preds = %80, %41
  br label %4, !llvm.loop !12

82:                                               ; preds = %14
  ret void
}

; Function Attrs: nounwind uwtable
define internal i64 @chunk_skip(ptr noundef %0, i64 noundef %1) #0 {
  %3 = alloca ptr, align 8
  %4 = alloca i64, align 8
  %5 = alloca i64, align 8
  store ptr %0, ptr %3, align 8
  store i64 %1, ptr %4, align 8
  %6 = load ptr, ptr %3, align 8
  %7 = getelementptr inbounds %struct.buf_chunk, ptr %6, i32 0, i32 3
  %8 = load i64, ptr %7, align 8
  %9 = load ptr, ptr %3, align 8
  %10 = getelementptr inbounds %struct.buf_chunk, ptr %9, i32 0, i32 2
  %11 = load i64, ptr %10, align 8
  %12 = sub i64 %8, %11
  store i64 %12, ptr %5, align 8
  br label %13

13:                                               ; preds = %2
  br label %14

14:                                               ; preds = %13
  %15 = load i64, ptr %5, align 8
  %16 = icmp ne i64 %15, 0
  br i1 %16, label %17, label %45

17:                                               ; preds = %14
  %18 = load i64, ptr %5, align 8
  %19 = load i64, ptr %4, align 8
  %20 = icmp ult i64 %18, %19
  br i1 %20, label %21, label %23

21:                                               ; preds = %17
  %22 = load i64, ptr %5, align 8
  br label %25

23:                                               ; preds = %17
  %24 = load i64, ptr %4, align 8
  br label %25

25:                                               ; preds = %23, %21
  %26 = phi i64 [ %22, %21 ], [ %24, %23 ]
  store i64 %26, ptr %5, align 8
  %27 = load i64, ptr %5, align 8
  %28 = load ptr, ptr %3, align 8
  %29 = getelementptr inbounds %struct.buf_chunk, ptr %28, i32 0, i32 2
  %30 = load i64, ptr %29, align 8
  %31 = add i64 %30, %27
  store i64 %31, ptr %29, align 8
  %32 = load ptr, ptr %3, align 8
  %33 = getelementptr inbounds %struct.buf_chunk, ptr %32, i32 0, i32 2
  %34 = load i64, ptr %33, align 8
  %35 = load ptr, ptr %3, align 8
  %36 = getelementptr inbounds %struct.buf_chunk, ptr %35, i32 0, i32 3
  %37 = load i64, ptr %36, align 8
  %38 = icmp eq i64 %34, %37
  br i1 %38, label %39, label %44

39:                                               ; preds = %25
  %40 = load ptr, ptr %3, align 8
  %41 = getelementptr inbounds %struct.buf_chunk, ptr %40, i32 0, i32 3
  store i64 0, ptr %41, align 8
  %42 = load ptr, ptr %3, align 8
  %43 = getelementptr inbounds %struct.buf_chunk, ptr %42, i32 0, i32 2
  store i64 0, ptr %43, align 8
  br label %44

44:                                               ; preds = %39, %25
  br label %45

45:                                               ; preds = %44, %14
  %46 = load i64, ptr %5, align 8
  ret i64 %46
}

; Function Attrs: nounwind uwtable
define dso_local void @Curl_bufq_skip(ptr noundef %0, i64 noundef %1) #0 {
  %3 = alloca ptr, align 8
  %4 = alloca i64, align 8
  %5 = alloca i64, align 8
  store ptr %0, ptr %3, align 8
  store i64 %1, ptr %4, align 8
  br label %6

6:                                                ; preds = %16, %2
  %7 = load i64, ptr %4, align 8
  %8 = icmp ne i64 %7, 0
  br i1 %8, label %9, label %14

9:                                                ; preds = %6
  %10 = load ptr, ptr %3, align 8
  %11 = getelementptr inbounds %struct.bufq, ptr %10, i32 0, i32 0
  %12 = load ptr, ptr %11, align 8
  %13 = icmp ne ptr %12, null
  br label %14

14:                                               ; preds = %9, %6
  %15 = phi i1 [ false, %6 ], [ %13, %9 ]
  br i1 %15, label %16, label %26

16:                                               ; preds = %14
  %17 = load ptr, ptr %3, align 8
  %18 = getelementptr inbounds %struct.bufq, ptr %17, i32 0, i32 0
  %19 = load ptr, ptr %18, align 8
  %20 = load i64, ptr %4, align 8
  %21 = call i64 @chunk_skip(ptr noundef %19, i64 noundef %20)
  store i64 %21, ptr %5, align 8
  %22 = load i64, ptr %5, align 8
  %23 = load i64, ptr %4, align 8
  %24 = sub i64 %23, %22
  store i64 %24, ptr %4, align 8
  %25 = load ptr, ptr %3, align 8
  call void @prune_head(ptr noundef %25)
  br label %6, !llvm.loop !14

26:                                               ; preds = %14
  ret void
}