; Function Attrs: nounwind uwtable
define dso_local void @Curl_bufq_skip(ptr noundef captures(none) %0, i64 noundef %1) local_unnamed_addr #2 {
  %.not9 = icmp eq i64 %1, 0
  br i1 %.not9, label %.critedge, label %.lr.ph

.lr.ph:                                           ; preds = %2
  %3 = getelementptr inbounds nuw i8, ptr %0, i64 8
  %4 = getelementptr inbounds nuw i8, ptr %0, i64 24
  %5 = getelementptr inbounds nuw i8, ptr %0, i64 32
  %6 = getelementptr inbounds nuw i8, ptr %0, i64 40
  %7 = getelementptr inbounds nuw i8, ptr %0, i64 56
  %8 = getelementptr inbounds nuw i8, ptr %0, i64 16
  %.pre = load ptr, ptr %0, align 8
  br label %9

9:                                                ; preds = %.lr.ph, %prune_head.exit
  %10 = phi ptr [ %.pre, %.lr.ph ], [ %62, %prune_head.exit ]
  %.010 = phi i64 [ %1, %.lr.ph ], [ %22, %prune_head.exit ]
  %.not7 = icmp eq ptr %10, null
  br i1 %.not7, label %.critedge, label %11

11:                                               ; preds = %9
  %12 = getelementptr inbounds nuw i8, ptr %10, i64 24
  %13 = load i64, ptr %12, align 8
  %14 = getelementptr inbounds nuw i8, ptr %10, i64 16
  %15 = load i64, ptr %14, align 8
  %.not.i = icmp eq i64 %13, %15
  br i1 %.not.i, label %chunk_skip.exit, label %16

16:                                               ; preds = %11
  %17 = sub i64 %13, %15
  %18 = tail call i64 @llvm.umin.i64(i64 %17, i64 range(i64 1, 0) %.010)
  %19 = add i64 %18, %15
  store i64 %19, ptr %14, align 8
  %20 = icmp eq i64 %19, %13
  br i1 %20, label %21, label %chunk_skip.exit

21:                                               ; preds = %16
  tail call void @llvm.memset.p0.i64(ptr noundef nonnull align 8 dereferenceable(16) %14, i8 0, i64 16, i1 false)
  br label %chunk_skip.exit

chunk_skip.exit:                                  ; preds = %11, %16, %21
  %.0.i = phi i64 [ %18, %21 ], [ %18, %16 ], [ 0, %11 ]
  %22 = sub i64 %.010, %.0.i
  %23 = load ptr, ptr %0, align 8
  %.not27.i = icmp eq ptr %23, null
  br i1 %.not27.i, label %prune_head.exit, label %.lr.ph.i

.lr.ph.i:                                         ; preds = %chunk_skip.exit, %60
  %24 = phi ptr [ %61, %60 ], [ %23, %chunk_skip.exit ]
  %25 = getelementptr i8, ptr %24, i64 16
  %.val.i = load i64, ptr %25, align 8
  %26 = getelementptr i8, ptr %24, i64 24
  %.val25.i = load i64, ptr %26, align 8
  %.not26.i = icmp ult i64 %.val.i, %.val25.i
  br i1 %.not26.i, label %prune_head.exit, label %27

27:                                               ; preds = %.lr.ph.i
  %28 = load ptr, ptr %24, align 8
  store ptr %28, ptr %0, align 8
  %29 = load ptr, ptr %3, align 8
  %30 = icmp eq ptr %29, %24
  br i1 %30, label %31, label %32

31:                                               ; preds = %27
  store ptr %28, ptr %3, align 8
  br label %32

32:                                               ; preds = %31, %27
  %33 = load ptr, ptr %4, align 8
  %.not23.i = icmp eq ptr %33, null
  br i1 %.not23.i, label %47, label %34

34:                                               ; preds = %32
  %35 = getelementptr inbounds nuw i8, ptr %33, i64 16
  %36 = load i64, ptr %35, align 8
  %37 = getelementptr inbounds nuw i8, ptr %33, i64 24
  %38 = load i64, ptr %37, align 8
  %.not.i.i = icmp ult i64 %36, %38
  br i1 %.not.i.i, label %41, label %39

39:                                               ; preds = %34
  %40 = load ptr, ptr @Curl_cfree, align 8
  tail call void %40(ptr noundef nonnull %24) #11
  br label %bufcp_put.exit.i

41:                                               ; preds = %34
  store ptr null, ptr %24, align 8
  tail call void @llvm.memset.p0.i64(ptr noundef nonnull align 8 dereferenceable(16) %25, i8 0, i64 16, i1 false)
  %42 = load ptr, ptr %33, align 8
  store ptr %42, ptr %24, align 8
  store ptr %24, ptr %33, align 8
  %43 = load i64, ptr %35, align 8
  %44 = add i64 %43, 1
  store i64 %44, ptr %35, align 8
  br label %bufcp_put.exit.i

bufcp_put.exit.i:                                 ; preds = %41, %39
  %45 = load i64, ptr %5, align 8
  %46 = add i64 %45, -1
  store i64 %46, ptr %5, align 8
  br label %60

47:                                               ; preds = %32
  %48 = load i64, ptr %5, align 8
  %49 = load i64, ptr %6, align 8
  %50 = icmp ugt i64 %48, %49
  br i1 %50, label %54, label %51

51:                                               ; preds = %47
  %52 = load i32, ptr %7, align 8
  %53 = and i32 %52, 2
  %.not24.i = icmp eq i32 %53, 0
  br i1 %.not24.i, label %58, label %54

54:                                               ; preds = %51, %47
  %55 = load ptr, ptr @Curl_cfree, align 8
  tail call void %55(ptr noundef nonnull %24) #11
  %56 = load i64, ptr %5, align 8
  %57 = add i64 %56, -1
  store i64 %57, ptr %5, align 8
  br label %60

58:                                               ; preds = %51
  %59 = load ptr, ptr %8, align 8
  store ptr %59, ptr %24, align 8
  store ptr %24, ptr %8, align 8
  br label %60

60:                                               ; preds = %58, %54, %bufcp_put.exit.i
  %61 = load ptr, ptr %0, align 8
  %.not.i8 = icmp eq ptr %61, null
  br i1 %.not.i8, label %prune_head.exit, label %.lr.ph.i, !llvm.loop !11

prune_head.exit:                                  ; preds = %.lr.ph.i, %60, %chunk_skip.exit
  %62 = phi ptr [ null, %chunk_skip.exit ], [ %24, %.lr.ph.i ], [ null, %60 ]
  %.not = icmp eq i64 %22, 0
  br i1 %.not, label %.critedge, label %9, !llvm.loop !14

.critedge:                                        ; preds = %9, %prune_head.exit, %2
  ret void
}